(lp0
(I0
(ccopy_reg
_reconstructor
p1
(cgenpy.rostime
Time
p2
c__builtin__
object
p3
Ntp4
Rp5
(lp6
I1527300402
aI778738021
abg1
(g2
g3
Ntp7
Rp8
(lp9
I1527300412
aI808784961
abtp10
tp11
a(I3
(g8
g1
(g2
g3
Ntp12
Rp13
(lp14
I1527300419
aI638751983
abtp15
tp16
a(I0
(g13
g1
(g2
g3
Ntp17
Rp18
(lp19
I1527300422
aI928755044
abtp20
tp21
a(I4
(g18
g1
(g2
g3
Ntp22
Rp23
(lp24
I1527300427
aI678720951
abtp25
tp26
a(I0
(g23
g1
(g2
g3
Ntp27
Rp28
(lp29
I1527300430
aI818717956
abtp30
tp31
a(I5
(g28
g1
(g2
g3
Ntp32
Rp33
(lp34
I1527300434
aI148833036
abtp35
tp36
a(I0
(g33
g1
(g2
g3
Ntp37
Rp38
(lp39
I1527300434
aI228739976
abtp40
tp41
a(I-1
(g38
g1
(g2
g3
Ntp42
Rp43
(lp44
I1527300454
aI58691024
abtp45
tp46
a.