(lp0
(I0
(ccopy_reg
_reconstructor
p1
(cgenpy.rostime
Time
p2
c__builtin__
object
p3
Ntp4
Rp5
(lp6
I1527301419
aI258682012
abg1
(g2
g3
Ntp7
Rp8
(lp9
I1527301430
aI898761034
abtp10
tp11
a(I3
(g8
g1
(g2
g3
Ntp12
Rp13
(lp14
I1527301437
aI868884086
abtp15
tp16
a(I0
(g13
g1
(g2
g3
Ntp17
Rp18
(lp19
I1527301441
aI138849020
abtp20
tp21
a(I4
(g18
g1
(g2
g3
Ntp22
Rp23
(lp24
I1527301445
aI848752975
abtp25
tp26
a(I0
(g23
g1
(g2
g3
Ntp27
Rp28
(lp29
I1527301449
aI38714885
abtp30
tp31
a(I5
(g28
g1
(g2
g3
Ntp32
Rp33
(lp34
I1527301452
aI898727893
abtp35
tp36
a(I0
(g33
g1
(g2
g3
Ntp37
Rp38
(lp39
I1527301452
aI908778905
abtp40
tp41
a(I-1
(g38
g1
(g2
g3
Ntp42
Rp43
(lp44
I1527301466
aI878787040
abtp45
tp46
a.