(lp0
(I0
(ccopy_reg
_reconstructor
p1
(cgenpy.rostime
Time
p2
c__builtin__
object
p3
Ntp4
Rp5
(lp6
I1527172371
aI25927066
abg1
(g2
g3
Ntp7
Rp8
(lp9
I1527172382
aI245960950
abtp10
tp11
a(I3
(g8
g1
(g2
g3
Ntp12
Rp13
(lp14
I1527172389
aI455873012
abtp15
tp16
a(I0
(g13
g1
(g2
g3
Ntp17
Rp18
(lp19
I1527172392
aI975852012
abtp20
tp21
a(I4
(g18
g1
(g2
g3
Ntp22
Rp23
(lp24
I1527172397
aI725954055
abtp25
tp26
a(I0
(g23
g1
(g2
g3
Ntp27
Rp28
(lp29
I1527172397
aI756007909
abtp30
tp31
a(I-1
(g28
g1
(g2
g3
Ntp32
Rp33
(lp34
I1527172426
aI125838994
abtp35
tp36
a.