(lp0
(I0
(ccopy_reg
_reconstructor
p1
(cgenpy.rostime
Time
p2
c__builtin__
object
p3
Ntp4
Rp5
(lp6
I1528115433
aI303471088
abg1
(g2
g3
Ntp7
Rp8
(lp9
I1528115445
aI213479995
abtp10
tp11
a(I3
(g8
g1
(g2
g3
Ntp12
Rp13
(lp14
I1528115452
aI703764915
abtp15
tp16
a(I0
(g13
g1
(g2
g3
Ntp17
Rp18
(lp19
I1528115456
aI73479890
abtp20
tp21
a(I4
(g18
g1
(g2
g3
Ntp22
Rp23
(lp24
I1528115460
aI263396024
abtp25
tp26
a(I0
(g23
g1
(g2
g3
Ntp27
Rp28
(lp29
I1528115463
aI383361101
abtp30
tp31
a(I5
(g28
g1
(g2
g3
Ntp32
Rp33
(lp34
I1528115466
aI573424100
abtp35
tp36
a(I0
(g33
g1
(g2
g3
Ntp37
Rp38
(lp39
I1528115466
aI643500089
abtp40
tp41
a(I-1
(g38
g1
(g2
g3
Ntp42
Rp43
(lp44
I1528115485
aI623425006
abtp45
tp46
a.