(lp0
(I0
(ccopy_reg
_reconstructor
p1
(cgenpy.rostime
Time
p2
c__builtin__
object
p3
Ntp4
Rp5
(lp6
I1527172497
aI965907096
abg1
(g2
g3
Ntp7
Rp8
(lp9
I1527172510
aI346168994
abtp10
tp11
a(I3
(g8
g1
(g2
g3
Ntp12
Rp13
(lp14
I1527172517
aI595889091
abtp15
tp16
a(I0
(g13
g1
(g2
g3
Ntp17
Rp18
(lp19
I1527172520
aI916091918
abtp20
tp21
a(I4
(g18
g1
(g2
g3
Ntp22
Rp23
(lp24
I1527172525
aI575922966
abtp25
tp26
a(I0
(g23
g1
(g2
g3
Ntp27
Rp28
(lp29
I1527172525
aI625940084
abtp30
tp31
a(I-1
(g28
g1
(g2
g3
Ntp32
Rp33
(lp34
I1527172576
aI735929012
abtp35
tp36
a.